target datalayout = "e-m:e-p270:32:32-p271:32:32-p272:64:64-i64:64-i128:128-f80:128-n8:16:32:64-S128"
target triple = "x86_64-pc-linux-gnu"

%struct.H5C_class_t = type { i32, ptr, i32, i32, ptr, ptr, ptr, ptr, ptr, ptr, ptr, ptr, ptr, ptr }
%struct.H5FA_dblock_t = type { %struct.H5C_cache_entry_t, ptr, ptr, ptr, ptr, i64, i64, i64, i64, i64, i64, i64 }
%struct.H5C_cache_entry_t = type { ptr, i64, i64, ptr, i8, ptr, i8, i8, i8, i8, i32, i8, i8, i8, i8, i8, i32, ptr, i32, i32, i32, i32, i32, i8, i8, ptr, ptr, ptr, ptr, ptr, ptr, i8, i32, i8, i64, ptr, i64, i64, i32, i8, i32, i32, i8, ptr, ptr, ptr }
%struct.H5FA_hdr_t = type { %struct.H5C_cache_entry_t, %struct.H5FA_create_t, i64, %struct.H5FA_stat_t, i64, i64, i64, ptr, i64, i8, i64, i64, ptr, i8, ptr, ptr }
%struct.H5FA_create_t = type { ptr, i8, i8, i64 }
%struct.H5FA_stat_t = type { i64, i64, i64 }

@H5FA_init_g = external global i8, align 1
@H5_libterm_g = external global i8, align 1
@.str.2 = private unnamed_addr constant [104 x i8] c"generated/home/dtcxzyw/WorkSpace/Projects/compilers/llvm-opt-benchmark/bench/hdf5/hdf5/src/H5FAdblock.c\00", align 1
@H5E_FARRAY_g = external global i64, align 8
@H5AC_FARRAY_DBLOCK = external constant [1 x %struct.H5C_class_t], align 16
@H5E_CANTUNPROTECT_g = external global i64, align 8
@.str.15 = private unnamed_addr constant [59 x i8] c"unable to unprotect fixed array data block, address = %llu\00", align 1
@__func__.H5FA__dblock_unprotect = private unnamed_addr constant [23 x i8] c"H5FA__dblock_unprotect\00", align 1

; Function Attrs: nounwind uwtable
define i32 @H5FA__dblock_unprotect(ptr noundef %0, i32 noundef %1) #0 {
  %3 = alloca ptr, align 8
  %4 = alloca i32, align 4
  %5 = alloca i32, align 4
  %6 = alloca i8, align 1
  store ptr %0, ptr %3, align 8, !tbaa !8
  store i32 %1, ptr %4, align 4, !tbaa !46
  call void @llvm.lifetime.start.p0(i64 4, ptr %5) #4
  store i32 0, ptr %5, align 4, !tbaa !46
  call void @llvm.lifetime.start.p0(i64 1, ptr %6) #4
  store i8 0, ptr %6, align 1, !tbaa !10
  %7 = load i8, ptr @H5FA_init_g, align 1, !tbaa !10, !range !12, !noundef !13
  %8 = trunc i8 %7 to i1
  br i1 %8, label %13, label %9

9:                                                ; preds = %2
  %10 = load i8, ptr @H5_libterm_g, align 1, !tbaa !10, !range !12, !noundef !13
  %11 = trunc i8 %10 to i1
  %12 = xor i1 %11, true
  br label %13

13:                                               ; preds = %9, %2
  %14 = phi i1 [ true, %2 ], [ %12, %9 ]
  %15 = xor i1 %14, true
  %16 = xor i1 %15, true
  %17 = zext i1 %16 to i32
  %18 = sext i32 %17 to i64
  %19 = call i64 @llvm.expect.i64(i64 %18, i64 1)
  %20 = icmp ne i64 %19, 0
  br i1 %20, label %21, label %58

21:                                               ; preds = %13
  %22 = load ptr, ptr %3, align 8, !tbaa !8
  %23 = getelementptr inbounds nuw %struct.H5FA_dblock_t, ptr %22, i32 0, i32 3
  %24 = load ptr, ptr %23, align 8, !tbaa !16
  %25 = getelementptr inbounds nuw %struct.H5FA_hdr_t, ptr %24, i32 0, i32 7
  %26 = load ptr, ptr %25, align 8, !tbaa !52
  %27 = load ptr, ptr %3, align 8, !tbaa !8
  %28 = getelementptr inbounds nuw %struct.H5FA_dblock_t, ptr %27, i32 0, i32 5
  %29 = load i64, ptr %28, align 8, !tbaa !53
  %30 = load ptr, ptr %3, align 8, !tbaa !8
  %31 = load i32, ptr %4, align 4, !tbaa !46
  %32 = call i32 @H5AC_unprotect(ptr noundef %26, ptr noundef @H5AC_FARRAY_DBLOCK, i64 noundef %29, ptr noundef %30, i32 noundef %31)
  %33 = icmp slt i32 %32, 0
  br i1 %33, label %34, label %56

34:                                               ; preds = %21
  br label %35

35:                                               ; preds = %34
  br label %36

36:                                               ; preds = %35
  br label %37

37:                                               ; preds = %36
  %38 = load i64, ptr @H5E_FARRAY_g, align 8, !tbaa !14
  %39 = load i64, ptr @H5E_CANTUNPROTECT_g, align 8, !tbaa !14
  %40 = load ptr, ptr %3, align 8, !tbaa !8
  %41 = getelementptr inbounds nuw %struct.H5FA_dblock_t, ptr %40, i32 0, i32 5
  %42 = load i64, ptr %41, align 8, !tbaa !53
  %43 = call i32 (ptr, ptr, i32, i64, i64, ptr, ...) @H5E_printf_stack(ptr noundef @.str.2, ptr noundef @__func__.H5FA__dblock_unprotect, i32 noundef 332, i64 noundef %38, i64 noundef %39, ptr noundef @.str.15, i64 noundef %42)
  br label %44

44:                                               ; preds = %37
  br label %45

45:                                               ; preds = %44
  store i8 1, ptr %6, align 1, !tbaa !10
  %46 = load i8, ptr %6, align 1, !tbaa !10, !range !12, !noundef !13
  %47 = trunc i8 %46 to i1
  %48 = zext i1 %47 to i8
  store i8 %48, ptr %6, align 1, !tbaa !10
  br label %49

49:                                               ; preds = %45
  br label %50

50:                                               ; preds = %49
  br label %51

51:                                               ; preds = %50
  store i32 -1, ptr %5, align 4, !tbaa !46
  br label %57

52:                                               ; No predecessors!
  br label %53

53:                                               ; preds = %52
  br label %54

54:                                               ; preds = %53
  br label %55

55:                                               ; preds = %54
  br label %56

56:                                               ; preds = %55, %21
  br label %57

57:                                               ; preds = %56, %51
  br label %58

58:                                               ; preds = %57, %13
  %59 = load i32, ptr %5, align 4, !tbaa !46
  call void @llvm.lifetime.end.p0(i64 1, ptr %6) #4
  call void @llvm.lifetime.end.p0(i64 4, ptr %5) #4
  ret i32 %59
}